target datalayout = "e-m:e-p270:32:32-p271:32:32-p272:64:64-i64:64-i128:128-f80:128-n8:16:32:64-S128"
target triple = "x86_64-pc-linux-gnu"

%struct.TGAImage = type { i32, i32, i8, %"class.std::vector" }
%"class.std::vector" = type { %"struct.std::_Vector_base" }
%"struct.std::_Vector_base" = type { %"struct.std::_Vector_base<unsigned char, std::allocator<unsigned char>>::_Vector_impl" }
%"struct.std::_Vector_base<unsigned char, std::allocator<unsigned char>>::_Vector_impl" = type { %"struct.std::_Vector_base<unsigned char, std::allocator<unsigned char>>::_Vector_impl_data" }
%"struct.std::_Vector_base<unsigned char, std::allocator<unsigned char>>::_Vector_impl_data" = type { ptr, ptr, ptr }
%struct.TGAColor = type { [4 x i8], i8 }

; Function Attrs: mustprogress nounwind uwtable
define linkonce_odr dso_local noundef ptr @_ZNKSt6vectorIhSaIhEE11_M_data_ptrIhEEPT_S4_(ptr noundef nonnull align 8 dereferenceable(24) %0, ptr noundef %1) #6 comdat align 2 {
  %3 = alloca ptr, align 8
  %4 = alloca ptr, align 8
  store ptr %0, ptr %3, align 8, !tbaa !24
  store ptr %1, ptr %4, align 8, !tbaa !28
  %5 = load ptr, ptr %4, align 8, !tbaa !28
  ret ptr %5
}

; Function Attrs: mustprogress nounwind uwtable
define linkonce_odr dso_local noundef ptr @_ZNKSt6vectorIhSaIhEE4dataEv(ptr noundef nonnull align 8 dereferenceable(24) %0) #6 comdat align 2 {
  %2 = alloca ptr, align 8
  store ptr %0, ptr %2, align 8, !tbaa !24
  %3 = load ptr, ptr %2, align 8
  %4 = getelementptr inbounds nuw %"struct.std::_Vector_base", ptr %3, i32 0, i32 0
  %5 = getelementptr inbounds nuw %"struct.std::_Vector_base<unsigned char, std::allocator<unsigned char>>::_Vector_impl_data", ptr %4, i32 0, i32 0
  %6 = load ptr, ptr %5, align 8, !tbaa !33
  %7 = call noundef ptr @_ZNKSt6vectorIhSaIhEE11_M_data_ptrIhEEPT_S4_(ptr noundef nonnull align 8 dereferenceable(24) %3, ptr noundef %6) #3
  ret ptr %7
}

; Function Attrs: mustprogress nounwind uwtable
define linkonce_odr dso_local noundef i64 @_ZNKSt6vectorIhSaIhEE4sizeEv(ptr noundef nonnull align 8 dereferenceable(24) %0) #6 comdat align 2 {
  %2 = alloca ptr, align 8
  store ptr %0, ptr %2, align 8, !tbaa !24
  %3 = load ptr, ptr %2, align 8
  %4 = getelementptr inbounds nuw %"struct.std::_Vector_base", ptr %3, i32 0, i32 0
  %5 = getelementptr inbounds nuw %"struct.std::_Vector_base<unsigned char, std::allocator<unsigned char>>::_Vector_impl_data", ptr %4, i32 0, i32 1
  %6 = load ptr, ptr %5, align 8, !tbaa !34
  %7 = getelementptr inbounds nuw %"struct.std::_Vector_base", ptr %3, i32 0, i32 0
  %8 = getelementptr inbounds nuw %"struct.std::_Vector_base<unsigned char, std::allocator<unsigned char>>::_Vector_impl_data", ptr %7, i32 0, i32 0
  %9 = load ptr, ptr %8, align 8, !tbaa !33
  %10 = ptrtoint ptr %6 to i64
  %11 = ptrtoint ptr %9 to i64
  %12 = sub i64 %10, %11
  ret i64 %12
}

; Function Attrs: mustprogress nounwind uwtable
define dso_local i40 @_ZNK8TGAImage3getEii(ptr noundef nonnull align 8 dereferenceable(40) %0, i32 noundef %1, i32 noundef %2) #6 align 2 {
  %4 = alloca %struct.TGAColor, align 1
  %5 = alloca ptr, align 8
  %6 = alloca i32, align 4
  %7 = alloca i32, align 4
  %8 = alloca ptr, align 8
  %9 = alloca i32, align 4
  %10 = alloca i40, align 8
  store ptr %0, ptr %5, align 8, !tbaa !5
  store i32 %1, ptr %6, align 4, !tbaa !10
  store i32 %2, ptr %7, align 4, !tbaa !10
  %11 = load ptr, ptr %5, align 8
  %12 = getelementptr inbounds nuw %struct.TGAImage, ptr %11, i32 0, i32 3
  %13 = call noundef i64 @_ZNKSt6vectorIhSaIhEE4sizeEv(ptr noundef nonnull align 8 dereferenceable(24) %12) #3
  %14 = icmp ne i64 %13, 0
  br i1 %14, label %15, label %31

15:                                               ; preds = %3
  %16 = load i32, ptr %6, align 4, !tbaa !10
  %17 = icmp slt i32 %16, 0
  br i1 %17, label %31, label %18

18:                                               ; preds = %15
  %19 = load i32, ptr %7, align 4, !tbaa !10
  %20 = icmp slt i32 %19, 0
  br i1 %20, label %31, label %21

21:                                               ; preds = %18
  %22 = load i32, ptr %6, align 4, !tbaa !10
  %23 = getelementptr inbounds nuw %struct.TGAImage, ptr %11, i32 0, i32 0
  %24 = load i32, ptr %23, align 8, !tbaa !12
  %25 = icmp sge i32 %22, %24
  br i1 %25, label %31, label %26

26:                                               ; preds = %21
  %27 = load i32, ptr %7, align 4, !tbaa !10
  %28 = getelementptr inbounds nuw %struct.TGAImage, ptr %11, i32 0, i32 1
  %29 = load i32, ptr %28, align 4, !tbaa !19
  %30 = icmp sge i32 %27, %29
  br i1 %30, label %31, label %37

31:                                               ; preds = %26, %21, %18, %15, %3
  %32 = getelementptr inbounds nuw %struct.TGAColor, ptr %4, i32 0, i32 0
  store i8 0, ptr %32, align 1, !tbaa !21
  %33 = getelementptr inbounds i8, ptr %32, i64 1
  store i8 0, ptr %33, align 1, !tbaa !21
  %34 = getelementptr inbounds i8, ptr %32, i64 2
  store i8 0, ptr %34, align 1, !tbaa !21
  %35 = getelementptr inbounds i8, ptr %32, i64 3
  store i8 0, ptr %35, align 1, !tbaa !21
  %36 = getelementptr inbounds nuw %struct.TGAColor, ptr %4, i32 0, i32 1
  store i8 4, ptr %36, align 1, !tbaa !124
  br label %79

37:                                               ; preds = %26
  %38 = getelementptr inbounds nuw %struct.TGAColor, ptr %4, i32 0, i32 0
  store i8 0, ptr %38, align 1, !tbaa !21
  %39 = getelementptr inbounds i8, ptr %38, i64 1
  store i8 0, ptr %39, align 1, !tbaa !21
  %40 = getelementptr inbounds i8, ptr %38, i64 2
  store i8 0, ptr %40, align 1, !tbaa !21
  %41 = getelementptr inbounds i8, ptr %38, i64 3
  store i8 0, ptr %41, align 1, !tbaa !21
  %42 = getelementptr inbounds nuw %struct.TGAColor, ptr %4, i32 0, i32 1
  %43 = getelementptr inbounds nuw %struct.TGAImage, ptr %11, i32 0, i32 2
  %44 = load i8, ptr %43, align 8, !tbaa !20
  store i8 %44, ptr %42, align 1, !tbaa !124
  call void @llvm.lifetime.start.p0(i64 8, ptr %8) #3
  %45 = getelementptr inbounds nuw %struct.TGAImage, ptr %11, i32 0, i32 3
  %46 = call noundef ptr @_ZNKSt6vectorIhSaIhEE4dataEv(ptr noundef nonnull align 8 dereferenceable(24) %45) #3
  %47 = load i32, ptr %6, align 4, !tbaa !10
  %48 = load i32, ptr %7, align 4, !tbaa !10
  %49 = getelementptr inbounds nuw %struct.TGAImage, ptr %11, i32 0, i32 0
  %50 = load i32, ptr %49, align 8, !tbaa !12
  %51 = mul nsw i32 %48, %50
  %52 = add nsw i32 %47, %51
  %53 = getelementptr inbounds nuw %struct.TGAImage, ptr %11, i32 0, i32 2
  %54 = load i8, ptr %53, align 8, !tbaa !20
  %55 = zext i8 %54 to i32
  %56 = mul nsw i32 %52, %55
  %57 = sext i32 %56 to i64
  %58 = getelementptr inbounds i8, ptr %46, i64 %57
  store ptr %58, ptr %8, align 8, !tbaa !28
  call void @llvm.lifetime.start.p0(i64 4, ptr %9) #3
  %59 = getelementptr inbounds nuw %struct.TGAImage, ptr %11, i32 0, i32 2
  %60 = load i8, ptr %59, align 8, !tbaa !20
  %61 = zext i8 %60 to i32
  store i32 %61, ptr %9, align 4, !tbaa !10
  br label %62

62:                                               ; preds = %68, %37
  %63 = load i32, ptr %9, align 4, !tbaa !10
  %64 = add nsw i32 %63, -1
  store i32 %64, ptr %9, align 4, !tbaa !10
  %65 = icmp ne i32 %63, 0
  br i1 %65, label %67, label %66

66:                                               ; preds = %62
  call void @llvm.lifetime.end.p0(i64 4, ptr %9) #3
  br label %78

67:                                               ; preds = %62
  br label %68

68:                                               ; preds = %67
  %69 = load ptr, ptr %8, align 8, !tbaa !28
  %70 = load i32, ptr %9, align 4, !tbaa !10
  %71 = sext i32 %70 to i64
  %72 = getelementptr inbounds i8, ptr %69, i64 %71
  %73 = load i8, ptr %72, align 1, !tbaa !21
  %74 = getelementptr inbounds nuw %struct.TGAColor, ptr %4, i32 0, i32 0
  %75 = load i32, ptr %9, align 4, !tbaa !10
  %76 = sext i32 %75 to i64
  %77 = getelementptr inbounds [4 x i8], ptr %74, i64 0, i64 %76
  store i8 %73, ptr %77, align 1, !tbaa !21
  br label %62, !llvm.loop !133

78:                                               ; preds = %66
  call void @llvm.lifetime.end.p0(i64 8, ptr %8) #3
  br label %79

79:                                               ; preds = %78, %31
  call void @llvm.memcpy.p0.p0.i64(ptr align 8 %10, ptr align 1 %4, i64 5, i1 false)
  %80 = load i40, ptr %10, align 8
  ret i40 %80
}