; Function Attrs: mustprogress nofree norecurse nosync nounwind willreturn memory(readwrite, inaccessiblemem: none) uwtable
define dso_local i40 @_ZNK8TGAImage3getEii(ptr noundef nonnull readonly align 8 captures(none) dereferenceable(40) %0, i32 noundef %1, i32 noundef %2) local_unnamed_addr #13 align 2 {
  %4 = alloca %struct.TGAColor, align 8
  %5 = getelementptr inbounds nuw i8, ptr %0, i64 16
  %6 = getelementptr inbounds nuw i8, ptr %0, i64 24
  %7 = load ptr, ptr %6, align 8, !tbaa !20
  %8 = load ptr, ptr %5, align 8, !tbaa !18
  %9 = icmp ne ptr %7, %8
  %10 = or i32 %2, %1
  %11 = icmp sgt i32 %10, -1
  %or.cond3.not22 = and i1 %11, %9
  %12 = load i32, ptr %0, align 8
  %.not = icmp slt i32 %1, %12
  %or.cond = select i1 %or.cond3.not22, i1 %.not, i1 false
  %13 = getelementptr inbounds nuw i8, ptr %0, i64 4
  %14 = load i32, ptr %13, align 4
  %.not16 = icmp slt i32 %2, %14
  %or.cond19 = select i1 %or.cond, i1 %.not16, i1 false
  %15 = getelementptr inbounds nuw i8, ptr %4, i64 4
  br i1 %or.cond19, label %17, label %16

16:                                               ; preds = %3
  store i32 0, ptr %4, align 8
  store i8 4, ptr %15, align 4, !tbaa !44
  br label %.loopexit

17:                                               ; preds = %3
  %18 = getelementptr inbounds nuw i8, ptr %0, i64 8
  store i32 0, ptr %4, align 8
  %19 = load i8, ptr %18, align 8, !tbaa !17
  store i8 %19, ptr %15, align 4, !tbaa !44
  %.not1723 = icmp eq i8 %19, 0
  br i1 %.not1723, label %.loopexit, label %.lr.ph.preheader

.lr.ph.preheader:                                 ; preds = %17
  %20 = mul i32 %12, %2
  %21 = add i32 %20, %1
  %22 = zext i8 %19 to i32
  %23 = mul i32 %21, %22
  %24 = sext i32 %23 to i64
  %25 = zext i8 %19 to i64
  %26 = add nsw i32 %22, -1
  %27 = zext nneg i32 %26 to i64
  %28 = xor i64 %27, -1
  %29 = getelementptr i8, ptr %4, i64 %28
  %scevgep = getelementptr i8, ptr %29, i64 %25
  %30 = xor i64 %27, -1
  %31 = getelementptr i8, ptr %8, i64 %24
  %32 = getelementptr i8, ptr %31, i64 %25
  %scevgep25 = getelementptr i8, ptr %32, i64 %30
  call void @llvm.memcpy.p0.p0.i64(ptr align 1 %scevgep, ptr align 1 %scevgep25, i64 %25, i1 false), !tbaa !48
  br label %.loopexit

.loopexit:                                        ; preds = %.lr.ph.preheader, %17, %16
  %.0.copyload = load i40, ptr %4, align 8
  ret i40 %.0.copyload
}